; Function Attrs: mustprogress nounwind uwtable
define internal void @_ZNSt23_Sp_counted_ptr_inplaceIN5arrow4util12_GLOBAL__N_118AsyncTaskGroupImpl5StateESaIvELN9__gnu_cxx12_Lock_policyE2EE10_M_disposeEv(ptr nocapture noundef nonnull align 8 dereferenceable(32) %this) unnamed_addr #2 align 2 personality ptr @__gxx_personality_v0 {
entry:
  %finish_cb.i.i.i = getelementptr inbounds i8, ptr %this, i64 24
  %0 = load ptr, ptr %finish_cb.i.i.i, align 8
  %cmp.not.i.i.i.i.i = icmp eq ptr %0, null
  br i1 %cmp.not.i.i.i.i.i, label %_ZNSt16allocator_traitsISaIvEE7destroyIN5arrow4util12_GLOBAL__N_118AsyncTaskGroupImpl5StateEEEvRS0_PT_.exit, label %_ZNKSt14default_deleteIN5arrow8internal6FnOnceIFNS0_6StatusEvEE4ImplEEclEPS6_.exit.i.i.i.i.i

_ZNKSt14default_deleteIN5arrow8internal6FnOnceIFNS0_6StatusEvEE4ImplEEclEPS6_.exit.i.i.i.i.i: ; preds = %entry
  %vtable.i.i.i.i.i.i = load ptr, ptr %0, align 8
  %vfn.i.i.i.i.i.i = getelementptr inbounds i8, ptr %vtable.i.i.i.i.i.i, i64 8
  %1 = load ptr, ptr %vfn.i.i.i.i.i.i, align 8
  tail call void %1(ptr noundef nonnull align 8 dereferenceable(8) %0) #20
  br label %_ZNSt16allocator_traitsISaIvEE7destroyIN5arrow4util12_GLOBAL__N_118AsyncTaskGroupImpl5StateEEEvRS0_PT_.exit

_ZNSt16allocator_traitsISaIvEE7destroyIN5arrow4util12_GLOBAL__N_118AsyncTaskGroupImpl5StateEEEvRS0_PT_.exit: ; preds = %entry, %_ZNKSt14default_deleteIN5arrow8internal6FnOnceIFNS0_6StatusEvEE4ImplEEclEPS6_.exit.i.i.i.i.i
  store ptr null, ptr %finish_cb.i.i.i, align 8
  ret void
}